; Function Attrs: nounwind uwtable
define ptr @l_Std_Range_forIn_x27_loop___at_Lean_Meta_MatcherApp_transform___spec__14___rarg___lambda__2(ptr noundef %0, ptr noundef %1, ptr noundef %2, ptr noundef %3, ptr noundef %4, ptr noundef %5) local_unnamed_addr #1 {
  %7 = tail call ptr @l_Array_append___rarg(ptr noundef %0, ptr noundef %1) #4
  %8 = tail call ptr @l_Array_append___rarg(ptr noundef %7, ptr noundef %2) #4
  %9 = tail call ptr @l_Array_append___rarg(ptr noundef %8, ptr noundef %3) #4
  tail call void @lean_inc_heartbeat() #4
  %10 = tail call noalias ptr @mi_malloc_small(i64 noundef 72) #4
  %11 = icmp eq ptr %10, null
  br i1 %11, label %12, label %lean_alloc_closure.exit

12:                                               ; preds = %6
  tail call void @lean_internal_panic_out_of_memory() #5
  unreachable

lean_alloc_closure.exit:                          ; preds = %6
  %13 = getelementptr inbounds nuw i8, ptr %10, i64 4
  store i32 1, ptr %10, align 4, !tbaa !8
  store i32 -184549304, ptr %13, align 4
  %14 = getelementptr inbounds nuw i8, ptr %10, i64 8
  store ptr @l_Lean_Meta_mkLambdaFVars___boxed, ptr %14, align 8, !tbaa !4
  %15 = getelementptr inbounds nuw i8, ptr %10, i64 16
  store i16 11, ptr %15, align 8, !tbaa !15
  %16 = getelementptr inbounds nuw i8, ptr %10, i64 18
  store i16 6, ptr %16, align 2, !tbaa !15
  %17 = getelementptr inbounds nuw i8, ptr %10, i64 24
  store ptr %9, ptr %17, align 8, !tbaa !4
  %18 = getelementptr inbounds nuw i8, ptr %10, i64 32
  store ptr %5, ptr %18, align 8, !tbaa !4
  %19 = getelementptr inbounds nuw i8, ptr %10, i64 40
  store ptr inttoptr (i64 1 to ptr), ptr %19, align 8, !tbaa !4
  %20 = getelementptr inbounds nuw i8, ptr %10, i64 48
  store ptr inttoptr (i64 3 to ptr), ptr %20, align 8, !tbaa !4
  %21 = getelementptr inbounds nuw i8, ptr %10, i64 56
  store ptr inttoptr (i64 1 to ptr), ptr %21, align 8, !tbaa !4
  %22 = getelementptr inbounds nuw i8, ptr %10, i64 64
  store ptr inttoptr (i64 3 to ptr), ptr %22, align 8, !tbaa !4
  %23 = tail call ptr @lean_apply_2(ptr noundef %4, ptr noundef nonnull inttoptr (i64 1 to ptr), ptr noundef nonnull %10) #4
  ret ptr %23
}